target datalayout = "e-m:e-p270:32:32-p271:32:32-p272:64:64-i64:64-i128:128-f80:128-n8:16:32:64-S128"
target triple = "x86_64-unknown-linux-gnu"

%"struct.node::AssertionInfo" = type { ptr, ptr, ptr }
%"class.node::MemoryRetainer" = type { ptr }
%"struct.std::__detail::_Hash_node_base" = type { ptr }
%"struct.std::__detail::_Prime_rehash_policy" = type { float, i64 }
%"class.v8::IndirectHandleBase" = type { ptr }
%"class.v8::Global.7" = type { %"class.v8::PersistentBase.8" }
%"class.v8::PersistentBase.8" = type { %"class.v8::IndirectHandleBase" }
%"class.v8::Global" = type { %"class.v8::PersistentBase" }
%"class.v8::PersistentBase" = type { %"class.v8::IndirectHandleBase" }
%"class.node::quic::BindingData" = type { %"class.node::BaseObject", %"class.node::mem::NgLibMemoryManager", %"class.std::vector", %"class.std::unordered_map", i8, i8, i64, %"class.v8::Global.5", %"class.v8::Global.5", %"class.v8::Global.5", %"class.v8::Global.5", %"class.v8::Global.5", %"class.v8::Global.5", %"class.v8::Global.7", %"class.v8::Global.7", %"class.v8::Global.7", %"class.v8::Global.7", %"class.v8::Global.7", %"class.v8::Global.7", %"class.v8::Global.7", %"class.v8::Global.7", %"class.v8::Global.7", %"class.v8::Global.7", %"class.v8::Global.7", %"class.v8::Global.7", %"class.v8::Global.7", %"class.v8::Global.7", %"class.v8::Global.7", %"class.v8::Eternal", %"class.v8::Eternal", %"class.v8::Eternal", %"class.v8::Eternal", %"class.v8::Eternal", %"class.v8::Eternal", %"class.v8::Eternal", %"class.v8::Eternal", %"class.v8::Eternal", %"class.v8::Eternal", %"class.v8::Eternal", %"class.v8::Eternal", %"class.v8::Eternal", %"class.v8::Eternal", %"class.v8::Eternal", %"class.v8::Eternal", %"class.v8::Eternal", %"class.v8::Eternal", %"class.v8::Eternal", %"class.v8::Eternal", %"class.v8::Eternal", %"class.v8::Eternal", %"class.v8::Eternal", %"class.v8::Eternal", %"class.v8::Eternal", %"class.v8::Eternal", %"class.v8::Eternal", %"class.v8::Eternal", %"class.v8::Eternal", %"class.v8::Eternal", %"class.v8::Eternal", %"class.v8::Eternal", %"class.v8::Eternal", %"class.v8::Eternal", %"class.v8::Eternal", %"class.v8::Eternal", %"class.v8::Eternal", %"class.v8::Eternal", %"class.v8::Eternal", %"class.v8::Eternal", %"class.v8::Eternal", %"class.v8::Eternal", %"class.v8::Eternal", %"class.v8::Eternal", %"class.v8::Eternal", %"class.v8::Eternal", %"class.v8::Eternal", %"class.v8::Eternal", %"class.v8::Eternal", %"class.v8::Eternal", %"class.v8::Eternal", %"class.v8::Eternal", %"class.v8::Eternal", %"class.v8::Eternal", %"class.v8::Eternal", %"class.v8::Eternal", %"class.v8::Eternal", %"class.v8::Eternal", %"class.v8::Eternal", %"class.v8::Eternal", %"class.v8::Eternal", %"class.v8::Eternal", %"class.v8::Eternal", %"class.v8::Eternal", %"class.v8::Eternal", %"class.v8::Eternal", %"class.v8::Eternal", %"class.v8::Eternal", %"class.v8::Eternal", %"class.v8::Eternal", %"class.v8::Eternal", %"class.v8::Eternal", %"class.v8::Eternal", %"class.v8::Eternal", %"class.v8::Eternal", %"class.v8::Eternal", %"class.v8::Eternal", %"class.v8::Eternal", %"class.v8::Eternal", %"class.v8::Eternal", %"class.v8::Eternal", %"class.v8::Eternal", %"class.v8::Eternal", %"class.v8::Eternal", %"class.v8::Eternal", %"class.v8::Eternal" }
%"class.node::BaseObject" = type { %"class.node::MemoryRetainer", %"class.v8::Global", ptr, ptr }
%"class.node::mem::NgLibMemoryManager" = type { %"struct.node::mem::NgLibMemoryManagerBase" }
%"struct.node::mem::NgLibMemoryManagerBase" = type { ptr }
%"class.std::vector" = type { %"struct.std::_Vector_base" }
%"struct.std::_Vector_base" = type { %"struct.std::_Vector_base<node::BaseObjectPtrImpl<node::BaseObject, false>, std::allocator<node::BaseObjectPtrImpl<node::BaseObject, false>>>::_Vector_impl" }
%"struct.std::_Vector_base<node::BaseObjectPtrImpl<node::BaseObject, false>, std::allocator<node::BaseObjectPtrImpl<node::BaseObject, false>>>::_Vector_impl" = type { %"struct.std::_Vector_base<node::BaseObjectPtrImpl<node::BaseObject, false>, std::allocator<node::BaseObjectPtrImpl<node::BaseObject, false>>>::_Vector_impl_data" }
%"struct.std::_Vector_base<node::BaseObjectPtrImpl<node::BaseObject, false>, std::allocator<node::BaseObjectPtrImpl<node::BaseObject, false>>>::_Vector_impl_data" = type { ptr, ptr, ptr }
%"class.std::unordered_map" = type { %"class.std::_Hashtable" }
%"class.std::_Hashtable" = type { ptr, i64, %"struct.std::__detail::_Hash_node_base", i64, %"struct.std::__detail::_Prime_rehash_policy", ptr }
%"class.v8::Global.5" = type { %"class.v8::PersistentBase.6" }
%"class.v8::PersistentBase.6" = type { %"class.v8::IndirectHandleBase" }
%"class.v8::Eternal" = type { %"class.v8::IndirectHandleBase" }

@_ZZNK4node4quic11BindingData18CheckAllocatedSizeEmE4args = internal constant %"struct.node::AssertionInfo" { ptr @.str, ptr @.str.1, ptr @.str.2 }, align 8

; Function Attrs: mustprogress nounwind uwtable
define dso_local void @_ZNK4node4quic11BindingData18CheckAllocatedSizeEm(ptr noundef nonnull align 8 dereferenceable(992) %this, i64 noundef %previous_size) #4 align 2 {
entry:
  %this.addr = alloca ptr, align 8
  %previous_size.addr = alloca i64, align 8
  store ptr %this, ptr %this.addr, align 8
  store i64 %previous_size, ptr %previous_size.addr, align 8
  %this1 = load ptr, ptr %this.addr, align 8
  br label %do.body

do.body:                                          ; preds = %entry
  %current_ngtcp2_memory_ = getelementptr inbounds %"class.node::quic::BindingData", ptr %this1, i32 0, i32 6
  %0 = load i64, ptr %current_ngtcp2_memory_, align 8
  %1 = load i64, ptr %previous_size.addr, align 8
  %cmp = icmp uge i64 %0, %1
  %lnot = xor i1 %cmp, true
  %lnot2 = xor i1 %lnot, true
  %lnot3 = xor i1 %lnot2, true
  br i1 %lnot3, label %if.then, label %if.end

if.then:                                          ; preds = %do.body
  br label %do.body4

do.body4:                                         ; preds = %if.then
  call void @_ZN4node6AssertERKNS_13AssertionInfoE(ptr noundef nonnull align 8 dereferenceable(24) @_ZZNK4node4quic11BindingData18CheckAllocatedSizeEmE4args)
  call void @abort() #14
  unreachable

do.end:                                           ; No predecessors!
  br label %if.end

if.end:                                           ; preds = %do.end, %do.body
  br label %do.end5

do.end5:                                          ; preds = %if.end
  ret void
}