; Function Attrs: mustprogress nounwind uwtable
define dso_local void @_ZNK4node4quic11BindingData18CheckAllocatedSizeEm(ptr nocapture noundef nonnull readonly align 8 dereferenceable(992) %this, i64 noundef %previous_size) local_unnamed_addr #3 align 2 {
entry:
  %current_ngtcp2_memory_ = getelementptr inbounds i8, ptr %this, i64 128
  %0 = load i64, ptr %current_ngtcp2_memory_, align 8
  %cmp.not = icmp ult i64 %0, %previous_size
  br i1 %cmp.not, label %do.body4, label %do.end5

do.body4:                                         ; preds = %entry
  tail call void @_ZN4node6AssertERKNS_13AssertionInfoE(ptr noundef nonnull align 8 dereferenceable(24) @_ZZNK4node4quic11BindingData18CheckAllocatedSizeEmE4args) #19
  tail call void @abort() #20
  unreachable

do.end5:                                          ; preds = %entry
  ret void
}